; Function Attrs: nounwind uwtable
define ptr @Gia_ManDupTopMostRange(ptr noundef %0) local_unnamed_addr #0 {
  %2 = tail call noalias dereferenceable_or_null(16) ptr @malloc(i64 noundef 16) #8
  %3 = getelementptr inbounds nuw i8, ptr %2, i64 4
  store i32 0, ptr %3, align 4
  store i32 16, ptr %2, align 8
  %4 = tail call noalias dereferenceable_or_null(64) ptr @malloc(i64 noundef 64) #8
  %5 = getelementptr inbounds nuw i8, ptr %2, i64 8
  store ptr %4, ptr %5, align 8
  %6 = getelementptr i8, ptr %0, i64 32
  %7 = getelementptr i8, ptr %0, i64 72
  br label %8

8:                                                ; preds = %1, %Vec_IntPush.exit
  %indvars.iv = phi i64 [ 45, %1 ], [ %indvars.iv.next, %Vec_IntPush.exit ]
  %.val11 = load ptr, ptr %6, align 8
  %.val12 = load ptr, ptr %7, align 8
  %9 = getelementptr i8, ptr %.val12, i64 8
  %.val12.val = load ptr, ptr %9, align 8
  %10 = getelementptr inbounds nuw i32, ptr %.val12.val, i64 %indvars.iv
  %11 = load i32, ptr %10, align 4
  %12 = sext i32 %11 to i64
  %13 = getelementptr inbounds %struct.Gia_Obj_t_, ptr %.val11, i64 %12
  %14 = load i64, ptr %13, align 4
  %15 = and i64 %14, 536870911
  %16 = sub nsw i64 0, %15
  %17 = getelementptr inbounds %struct.Gia_Obj_t_, ptr %13, i64 %16
  %18 = ptrtoint ptr %17 to i64
  %19 = ptrtoint ptr %.val11 to i64
  %20 = sub i64 %18, %19
  %21 = sdiv exact i64 %20, 12
  %22 = trunc i64 %21 to i32
  %23 = load i32, ptr %3, align 4
  %24 = load i32, ptr %2, align 8
  %25 = icmp eq i32 %23, %24
  br i1 %25, label %26, label %.Vec_IntGrow.exit10_crit_edge.i

.Vec_IntGrow.exit10_crit_edge.i:                  ; preds = %8
  %.pre.i = load ptr, ptr %5, align 8
  br label %Vec_IntPush.exit

26:                                               ; preds = %8
  %27 = icmp slt i32 %23, 16
  br i1 %27, label %28, label %35

28:                                               ; preds = %26
  %29 = load ptr, ptr %5, align 8
  %.not9.i.i = icmp eq ptr %29, null
  br i1 %.not9.i.i, label %32, label %30

30:                                               ; preds = %28
  %31 = tail call dereferenceable_or_null(64) ptr @realloc(ptr noundef nonnull %29, i64 noundef 64) #7
  br label %Vec_IntGrow.exit.i

32:                                               ; preds = %28
  %33 = tail call noalias dereferenceable_or_null(64) ptr @malloc(i64 noundef 64) #8
  br label %Vec_IntGrow.exit.i

Vec_IntGrow.exit.i:                               ; preds = %32, %30
  %34 = phi ptr [ %31, %30 ], [ %33, %32 ]
  store ptr %34, ptr %5, align 8
  store i32 16, ptr %2, align 8
  br label %Vec_IntPush.exit

35:                                               ; preds = %26
  %36 = shl nuw nsw i32 %23, 1
  %37 = load ptr, ptr %5, align 8
  %.not9.i9.i = icmp eq ptr %37, null
  %38 = zext nneg i32 %36 to i64
  %39 = shl nuw nsw i64 %38, 2
  br i1 %.not9.i9.i, label %42, label %40

40:                                               ; preds = %35
  %41 = tail call ptr @realloc(ptr noundef nonnull %37, i64 noundef %39) #7
  br label %44

42:                                               ; preds = %35
  %43 = tail call noalias ptr @malloc(i64 noundef %39) #8
  br label %44

44:                                               ; preds = %42, %40
  %45 = phi ptr [ %41, %40 ], [ %43, %42 ]
  store ptr %45, ptr %5, align 8
  store i32 %36, ptr %2, align 8
  br label %Vec_IntPush.exit

Vec_IntPush.exit:                                 ; preds = %.Vec_IntGrow.exit10_crit_edge.i, %Vec_IntGrow.exit.i, %44
  %46 = phi ptr [ %.pre.i, %.Vec_IntGrow.exit10_crit_edge.i ], [ %45, %44 ], [ %34, %Vec_IntGrow.exit.i ]
  %47 = add nsw i32 %23, 1
  store i32 %47, ptr %3, align 4
  %48 = sext i32 %23 to i64
  %49 = getelementptr inbounds i32, ptr %46, i64 %48
  store i32 %22, ptr %49, align 4
  %indvars.iv.next = add nuw nsw i64 %indvars.iv, 1
  %exitcond.not = icmp eq i64 %indvars.iv.next, 52
  br i1 %exitcond.not, label %50, label %8, !llvm.loop !8

50:                                               ; preds = %Vec_IntPush.exit
  %.val13 = load ptr, ptr %5, align 8
  %.val10 = load i32, ptr %3, align 4
  %51 = tail call ptr @Gia_ManDupAndConesLimit(ptr noundef nonnull %0, ptr noundef %.val13, i32 noundef %.val10, i32 noundef 100) #9
  %.not.i = icmp eq ptr %.val13, null
  br i1 %.not.i, label %Vec_IntFree.exit, label %52

52:                                               ; preds = %50
  tail call void @free(ptr noundef nonnull %.val13) #9
  br label %Vec_IntFree.exit

Vec_IntFree.exit:                                 ; preds = %50, %52
  tail call void @free(ptr noundef nonnull %2) #9
  ret ptr %51
}